target datalayout = "e-m:e-p270:32:32-p271:32:32-p272:64:64-i64:64-i128:128-f80:128-n8:16:32:64-S128"
target triple = "x86_64-pc-linux-gnu"

%struct._sv_frame_data = type { i16, i8, i8, [20 x %struct._sv_phs_meas], i16 }
%struct._sv_phs_meas = type { i32, i32 }
%struct._asn1_ctx_t = type { i32, i32, i8, ptr, ptr, ptr, ptr, ptr, %struct.anon, %struct.anon.2, %struct.anon.3, ptr }
%struct.anon = type { i32, i8, i8, i8, ptr, ptr, i32, i32, ptr, ptr, ptr, %union.anon }
%union.anon = type { %struct.anon.0 }
%struct.anon.0 = type { ptr }
%struct.anon.2 = type { ptr, ptr, ptr }
%struct.anon.3 = type { i32, i8, ptr, i32, i32, ptr, ptr, ptr, %union.anon.4 }
%union.anon.4 = type { %struct.anon.5 }
%struct.anon.5 = type { ptr }

@hf_sv_phmeas_instmag_i = internal global i32 0, align 4
@hf_sv_phsmeas_q = internal global i32 0, align 4
@ett_phsmeas = internal global i32 0, align 4
@ett_phsmeas_q = internal global i32 0, align 4
@sv_decode_data_as_phsmeas = internal global i8 0, align 1
@sv_data = internal global %struct._sv_frame_data zeroinitializer, align 4
@.str.112 = private unnamed_addr constant [9 x i8] c"PhsMeas1\00", align 1

; Function Attrs: null_pointer_is_valid sspstrong uwtable
define internal i32 @dissect_PhsMeas1(i1 noundef zeroext %0, ptr noundef %1, ptr noundef %2, ptr noundef %3, i32 noundef %4, i32 noundef %5) #0 {
  %7 = alloca i8, align 1
  %8 = alloca ptr, align 8
  %9 = alloca ptr, align 8
  %10 = alloca ptr, align 8
  %11 = alloca i32, align 4
  %12 = alloca i32, align 4
  %13 = alloca i8, align 1
  %14 = alloca i8, align 1
  %15 = alloca i32, align 4
  %16 = alloca i32, align 4
  %17 = alloca ptr, align 8
  %18 = alloca i32, align 4
  %19 = alloca i32, align 4
  %20 = alloca i32, align 4
  %21 = zext i1 %0 to i8
  store i8 %21, ptr %7, align 1
  store ptr %1, ptr %8, align 8
  store ptr %2, ptr %9, align 8
  store ptr %3, ptr %10, align 8
  store i32 %4, ptr %11, align 4
  store i32 %5, ptr %12, align 4
  call void @llvm.lifetime.start.p0(i64 1, ptr %13) #3
  call void @llvm.lifetime.start.p0(i64 1, ptr %14) #3
  call void @llvm.lifetime.start.p0(i64 4, ptr %15) #3
  call void @llvm.lifetime.start.p0(i64 4, ptr %16) #3
  call void @llvm.lifetime.start.p0(i64 8, ptr %17) #3
  call void @llvm.lifetime.start.p0(i64 4, ptr %18) #3
  call void @llvm.lifetime.start.p0(i64 4, ptr %19) #3
  call void @llvm.lifetime.start.p0(i64 4, ptr %20) #3
  %22 = load i8, ptr %7, align 1, !range !8, !noundef !9
  %23 = trunc i8 %22 to i1
  br i1 %23, label %35, label %24

24:                                               ; preds = %6
  %25 = load ptr, ptr %8, align 8
  %26 = load ptr, ptr %9, align 8
  %27 = load ptr, ptr %10, align 8
  %28 = load i32, ptr %11, align 4
  %29 = call i32 @dissect_ber_identifier(ptr noundef %25, ptr noundef %26, ptr noundef %27, i32 noundef %28, ptr noundef %13, ptr noundef %14, ptr noundef %15)
  store i32 %29, ptr %11, align 4
  %30 = load ptr, ptr %8, align 8
  %31 = load ptr, ptr %9, align 8
  %32 = load ptr, ptr %10, align 8
  %33 = load i32, ptr %11, align 4
  %34 = call i32 @dissect_ber_length(ptr noundef %30, ptr noundef %31, ptr noundef %32, i32 noundef %33, ptr noundef %16, ptr noundef null)
  store i32 %34, ptr %11, align 4
  br label %39

35:                                               ; preds = %6
  %36 = load ptr, ptr %10, align 8
  %37 = load i32, ptr %11, align 4
  %38 = call i32 @tvb_reported_length_remaining(ptr noundef %36, i32 noundef %37)
  store i32 %38, ptr %16, align 4
  br label %39

39:                                               ; preds = %35, %24
  %40 = load ptr, ptr %9, align 8
  %41 = load ptr, ptr %10, align 8
  %42 = load i32, ptr %11, align 4
  %43 = load i32, ptr %16, align 4
  %44 = load i32, ptr @ett_phsmeas, align 4
  %45 = call ptr @proto_tree_add_subtree(ptr noundef %40, ptr noundef %41, i32 noundef %42, i32 noundef %43, i32 noundef %44, ptr noundef null, ptr noundef @.str.112)
  store ptr %45, ptr %17, align 8
  store i8 0, ptr getelementptr inbounds nuw (%struct._sv_frame_data, ptr @sv_data, i32 0, i32 2), align 1
  store i32 0, ptr %20, align 4
  br label %46

46:                                               ; preds = %96, %39
  %47 = load i32, ptr %20, align 4
  %48 = load i32, ptr %16, align 4
  %49 = udiv i32 %48, 8
  %50 = icmp ult i32 %47, %49
  br i1 %50, label %51, label %99

51:                                               ; preds = %46
  %52 = load ptr, ptr %9, align 8
  %53 = icmp ne ptr %52, null
  br i1 %53, label %54, label %93

54:                                               ; preds = %51
  %55 = load ptr, ptr %17, align 8
  %56 = icmp ne ptr %55, null
  br i1 %56, label %57, label %93

57:                                               ; preds = %54
  %58 = load ptr, ptr %10, align 8
  %59 = load i32, ptr %11, align 4
  %60 = call i32 @tvb_get_ntohl(ptr noundef %58, i32 noundef %59)
  store i32 %60, ptr %18, align 4
  %61 = load ptr, ptr %10, align 8
  %62 = load i32, ptr %11, align 4
  %63 = add i32 %62, 4
  %64 = call i32 @tvb_get_ntohl(ptr noundef %61, i32 noundef %63)
  store i32 %64, ptr %19, align 4
  %65 = load ptr, ptr %17, align 8
  %66 = load i32, ptr @hf_sv_phmeas_instmag_i, align 4
  %67 = load ptr, ptr %10, align 8
  %68 = load i32, ptr %11, align 4
  %69 = call ptr @proto_tree_add_item(ptr noundef %65, i32 noundef %66, ptr noundef %67, i32 noundef %68, i32 noundef 4, i32 noundef 0)
  %70 = load ptr, ptr %17, align 8
  %71 = load ptr, ptr %10, align 8
  %72 = load i32, ptr %11, align 4
  %73 = add i32 %72, 4
  %74 = load i32, ptr @hf_sv_phsmeas_q, align 4
  %75 = load i32, ptr @ett_phsmeas_q, align 4
  %76 = call ptr @proto_tree_add_bitmask(ptr noundef %70, ptr noundef %71, i32 noundef %73, i32 noundef %74, i32 noundef %75, ptr noundef @dissect_PhsMeas1.q_flags, i32 noundef 0)
  %77 = load i32, ptr %20, align 4
  %78 = icmp ult i32 %77, 20
  br i1 %78, label %79, label %92

79:                                               ; preds = %57
  %80 = load i32, ptr %18, align 4
  %81 = load i32, ptr %20, align 4
  %82 = zext i32 %81 to i64
  %83 = getelementptr [20 x %struct._sv_phs_meas], ptr getelementptr inbounds nuw (%struct._sv_frame_data, ptr @sv_data, i32 0, i32 3), i64 0, i64 %82
  %84 = getelementptr inbounds nuw %struct._sv_phs_meas, ptr %83, i32 0, i32 0
  store i32 %80, ptr %84, align 4
  %85 = load i32, ptr %19, align 4
  %86 = load i32, ptr %20, align 4
  %87 = zext i32 %86 to i64
  %88 = getelementptr [20 x %struct._sv_phs_meas], ptr getelementptr inbounds nuw (%struct._sv_frame_data, ptr @sv_data, i32 0, i32 3), i64 0, i64 %87
  %89 = getelementptr inbounds nuw %struct._sv_phs_meas, ptr %88, i32 0, i32 1
  store i32 %85, ptr %89, align 4
  %90 = load i8, ptr getelementptr inbounds nuw (%struct._sv_frame_data, ptr @sv_data, i32 0, i32 2), align 1
  %91 = add i8 %90, 1
  store i8 %91, ptr getelementptr inbounds nuw (%struct._sv_frame_data, ptr @sv_data, i32 0, i32 2), align 1
  br label %92

92:                                               ; preds = %79, %57
  br label %93

93:                                               ; preds = %92, %54, %51
  %94 = load i32, ptr %11, align 4
  %95 = add i32 %94, 8
  store i32 %95, ptr %11, align 4
  br label %96

96:                                               ; preds = %93
  %97 = load i32, ptr %20, align 4
  %98 = add i32 %97, 1
  store i32 %98, ptr %20, align 4
  br label %46, !llvm.loop !10

99:                                               ; preds = %46
  %100 = load i32, ptr %11, align 4
  call void @llvm.lifetime.end.p0(i64 4, ptr %20) #3
  call void @llvm.lifetime.end.p0(i64 4, ptr %19) #3
  call void @llvm.lifetime.end.p0(i64 4, ptr %18) #3
  call void @llvm.lifetime.end.p0(i64 8, ptr %17) #3
  call void @llvm.lifetime.end.p0(i64 4, ptr %16) #3
  call void @llvm.lifetime.end.p0(i64 4, ptr %15) #3
  call void @llvm.lifetime.end.p0(i64 1, ptr %14) #3
  call void @llvm.lifetime.end.p0(i64 1, ptr %13) #3
  ret i32 %100
}

; Function Attrs: null_pointer_is_valid sspstrong uwtable
define internal i32 @dissect_sv_Data(i1 noundef zeroext %0, ptr noundef %1, i32 noundef %2, ptr noundef %3, ptr noundef %4, i32 noundef %5) #0 {
  %7 = alloca i8, align 1
  %8 = alloca ptr, align 8
  %9 = alloca i32, align 4
  %10 = alloca ptr, align 8
  %11 = alloca ptr, align 8
  %12 = alloca i32, align 4
  %13 = zext i1 %0 to i8
  store i8 %13, ptr %7, align 1
  store ptr %1, ptr %8, align 8
  store i32 %2, ptr %9, align 4
  store ptr %3, ptr %10, align 8
  store ptr %4, ptr %11, align 8
  store i32 %5, ptr %12, align 4
  %14 = load i8, ptr @sv_decode_data_as_phsmeas, align 1, !range !8, !noundef !9
  %15 = trunc i8 %14 to i1
  br i1 %15, label %16, label %27

16:                                               ; preds = %6
  %17 = load i8, ptr %7, align 1, !range !8, !noundef !9
  %18 = trunc i8 %17 to i1
  %19 = load ptr, ptr %10, align 8
  %20 = getelementptr inbounds nuw %struct._asn1_ctx_t, ptr %19, i32 0, i32 3
  %21 = load ptr, ptr %20, align 8
  %22 = load ptr, ptr %11, align 8
  %23 = load ptr, ptr %8, align 8
  %24 = load i32, ptr %9, align 4
  %25 = load i32, ptr %12, align 4
  %26 = call i32 @dissect_PhsMeas1(i1 noundef zeroext %18, ptr noundef %21, ptr noundef %22, ptr noundef %23, i32 noundef %24, i32 noundef %25)
  store i32 %26, ptr %9, align 4
  br label %36

27:                                               ; preds = %6
  %28 = load i8, ptr %7, align 1, !range !8, !noundef !9
  %29 = trunc i8 %28 to i1
  %30 = load ptr, ptr %10, align 8
  %31 = load ptr, ptr %11, align 8
  %32 = load ptr, ptr %8, align 8
  %33 = load i32, ptr %9, align 4
  %34 = load i32, ptr %12, align 4
  %35 = call i32 @dissect_ber_octet_string(i1 noundef zeroext %29, ptr noundef %30, ptr noundef %31, ptr noundef %32, i32 noundef %33, i32 noundef %34, ptr noundef null)
  store i32 %35, ptr %9, align 4
  br label %36

36:                                               ; preds = %27, %16
  %37 = load i32, ptr %9, align 4
  ret i32 %37
}