; Function Attrs: null_pointer_is_valid sspstrong uwtable
define internal i32 @dissect_sv_Data(i1 noundef zeroext %0, ptr noundef %1, i32 noundef %2, ptr noundef %3, ptr noundef %4, i32 noundef %5) #0 {
  %7 = alloca i8, align 1
  %8 = alloca i8, align 1
  %9 = alloca i32, align 4
  %10 = alloca i32, align 4
  %11 = load i8, ptr @sv_decode_data_as_phsmeas, align 1, !range !8, !noundef !9
  %12 = trunc nuw i8 %11 to i1
  br i1 %12, label %13, label %50

13:                                               ; preds = %6
  %14 = getelementptr inbounds nuw i8, ptr %3, i64 16
  %15 = load ptr, ptr %14, align 8
  call void @llvm.lifetime.start.p0(i64 1, ptr nonnull %7) #3
  call void @llvm.lifetime.start.p0(i64 1, ptr nonnull %8) #3
  call void @llvm.lifetime.start.p0(i64 4, ptr nonnull %9) #3
  call void @llvm.lifetime.start.p0(i64 4, ptr nonnull %10) #3
  br i1 %0, label %19, label %16

16:                                               ; preds = %13
  %17 = call i32 @dissect_ber_identifier(ptr noundef %15, ptr noundef %4, ptr noundef %1, i32 noundef %2, ptr noundef nonnull %7, ptr noundef nonnull %8, ptr noundef nonnull %9)
  %18 = call i32 @dissect_ber_length(ptr noundef %15, ptr noundef %4, ptr noundef %1, i32 noundef %17, ptr noundef nonnull %10, ptr noundef null)
  %.pre.i = load i32, ptr %10, align 4
  br label %21

19:                                               ; preds = %13
  %20 = tail call i32 @tvb_reported_length_remaining(ptr noundef %1, i32 noundef %2)
  store i32 %20, ptr %10, align 4
  br label %21

21:                                               ; preds = %19, %16
  %22 = phi i32 [ %20, %19 ], [ %.pre.i, %16 ]
  %.035.i = phi i32 [ %2, %19 ], [ %18, %16 ]
  %23 = load i32, ptr @ett_phsmeas, align 4
  %24 = call ptr @proto_tree_add_subtree(ptr noundef %4, ptr noundef %1, i32 noundef %.035.i, i32 noundef %22, i32 noundef %23, ptr noundef null, ptr noundef nonnull @.str.112)
  store i8 0, ptr getelementptr inbounds nuw (i8, ptr @sv_data, i64 3), align 1
  %25 = load i32, ptr %10, align 4
  %.not.i = icmp ult i32 %25, 8
  br i1 %.not.i, label %dissect_PhsMeas1.exit, label %.lr.ph.i

.lr.ph.i:                                         ; preds = %21
  %26 = icmp ne ptr %4, null
  %27 = icmp ne ptr %24, null
  %or.cond.i = select i1 %26, i1 %27, i1 false
  br i1 %or.cond.i, label %.lr.ph.split.us.i, label %.lr.ph.split.i

.lr.ph.split.us.i:                                ; preds = %.lr.ph.i, %42
  %indvars.iv.i = phi i64 [ %indvars.iv.next.i, %42 ], [ 0, %.lr.ph.i ]
  %.137.us.i = phi i32 [ %43, %42 ], [ %.035.i, %.lr.ph.i ]
  %28 = call i32 @tvb_get_ntohl(ptr noundef %1, i32 noundef %.137.us.i)
  %29 = add i32 %.137.us.i, 4
  %30 = call i32 @tvb_get_ntohl(ptr noundef %1, i32 noundef %29)
  %31 = load i32, ptr @hf_sv_phmeas_instmag_i, align 4
  %32 = call ptr @proto_tree_add_item(ptr noundef nonnull %24, i32 noundef %31, ptr noundef %1, i32 noundef %.137.us.i, i32 noundef 4, i32 noundef 0)
  %33 = load i32, ptr @hf_sv_phsmeas_q, align 4
  %34 = load i32, ptr @ett_phsmeas_q, align 4
  %35 = call ptr @proto_tree_add_bitmask(ptr noundef nonnull %24, ptr noundef %1, i32 noundef %29, i32 noundef %33, i32 noundef %34, ptr noundef nonnull @dissect_PhsMeas1.q_flags, i32 noundef 0)
  %36 = icmp samesign ult i64 %indvars.iv.i, 20
  br i1 %36, label %37, label %42

37:                                               ; preds = %.lr.ph.split.us.i
  %38 = getelementptr [20 x %struct._sv_phs_meas], ptr getelementptr inbounds nuw (i8, ptr @sv_data, i64 4), i64 0, i64 %indvars.iv.i
  store i32 %28, ptr %38, align 4
  %39 = getelementptr inbounds nuw i8, ptr %38, i64 4
  store i32 %30, ptr %39, align 4
  %40 = load i8, ptr getelementptr inbounds nuw (i8, ptr @sv_data, i64 3), align 1
  %41 = add i8 %40, 1
  store i8 %41, ptr getelementptr inbounds nuw (i8, ptr @sv_data, i64 3), align 1
  br label %42

42:                                               ; preds = %37, %.lr.ph.split.us.i
  %43 = add i32 %.137.us.i, 8
  %indvars.iv.next.i = add nuw nsw i64 %indvars.iv.i, 1
  %44 = load i32, ptr %10, align 4
  %45 = lshr i32 %44, 3
  %46 = zext nneg i32 %45 to i64
  %47 = icmp samesign ult i64 %indvars.iv.next.i, %46
  br i1 %47, label %.lr.ph.split.us.i, label %dissect_PhsMeas1.exit, !llvm.loop !10

.lr.ph.split.i:                                   ; preds = %.lr.ph.i
  %48 = and i32 %25, -8
  %49 = add i32 %48, %.035.i
  br label %dissect_PhsMeas1.exit

dissect_PhsMeas1.exit:                            ; preds = %42, %21, %.lr.ph.split.i
  %.1.lcssa.i = phi i32 [ %.035.i, %21 ], [ %49, %.lr.ph.split.i ], [ %43, %42 ]
  call void @llvm.lifetime.end.p0(i64 4, ptr nonnull %10) #3
  call void @llvm.lifetime.end.p0(i64 4, ptr nonnull %9) #3
  call void @llvm.lifetime.end.p0(i64 1, ptr nonnull %8) #3
  call void @llvm.lifetime.end.p0(i64 1, ptr nonnull %7) #3
  br label %52

50:                                               ; preds = %6
  %51 = tail call i32 @dissect_ber_octet_string(i1 noundef zeroext %0, ptr noundef %3, ptr noundef %4, ptr noundef %1, i32 noundef %2, i32 noundef %5, ptr noundef null)
  br label %52

52:                                               ; preds = %50, %dissect_PhsMeas1.exit
  %.0 = phi i32 [ %.1.lcssa.i, %dissect_PhsMeas1.exit ], [ %51, %50 ]
  ret i32 %.0
}